target datalayout = "e-m:e-p270:32:32-p271:32:32-p272:64:64-i64:64-i128:128-f80:128-n8:16:32:64-S128"
target triple = "x86_64-pc-linux-gnu"

; Function Attrs: null_pointer_is_valid sspstrong uwtable
define internal void @advance_to_end_of_signature(ptr noundef %0, ptr noundef %1, ptr noundef %2) #0 {
  %4 = alloca ptr, align 8
  %5 = alloca ptr, align 8
  %6 = alloca ptr, align 8
  %7 = alloca i8, align 1
  %8 = alloca i8, align 1
  %9 = alloca i8, align 1
  store ptr %0, ptr %4, align 8
  store ptr %1, ptr %5, align 8
  store ptr %2, ptr %6, align 8
  call void @llvm.lifetime.start.p0(i64 1, ptr %7) #5
  store i8 0, ptr %7, align 1
  call void @llvm.lifetime.start.p0(i64 1, ptr %8) #5
  call void @llvm.lifetime.start.p0(i64 1, ptr %9) #5
  store i8 0, ptr %9, align 1
  %10 = load ptr, ptr %4, align 8
  call void @increment_dissection_depth(ptr noundef %10)
  br label %11

11:                                               ; preds = %64, %46, %3
  %12 = load ptr, ptr %6, align 8
  %13 = load i8, ptr %12, align 1
  %14 = zext i8 %13 to i32
  %15 = icmp sgt i32 %14, 0
  br i1 %15, label %16, label %26

16:                                               ; preds = %11
  %17 = load ptr, ptr %5, align 8
  %18 = load ptr, ptr %17, align 8
  %19 = load i8, ptr %18, align 1
  %20 = zext i8 %19 to i32
  %21 = icmp ne i32 %20, 0
  br i1 %21, label %22, label %26

22:                                               ; preds = %16
  %23 = load i8, ptr %7, align 1, !range !6, !noundef !7
  %24 = trunc i8 %23 to i1
  %25 = xor i1 %24, true
  br label %26

26:                                               ; preds = %22, %16, %11
  %27 = phi i1 [ false, %16 ], [ false, %11 ], [ %25, %22 ]
  br i1 %27, label %28, label %65

28:                                               ; preds = %26
  %29 = load ptr, ptr %5, align 8
  %30 = load ptr, ptr %29, align 8
  %31 = getelementptr i8, ptr %30, i32 1
  store ptr %31, ptr %29, align 8
  %32 = load i8, ptr %31, align 1
  store i8 %32, ptr %8, align 1
  %33 = load ptr, ptr %6, align 8
  %34 = load i8, ptr %33, align 1
  %35 = add i8 %34, -1
  store i8 %35, ptr %33, align 1
  %36 = load i8, ptr %9, align 1
  %37 = sext i8 %36 to i32
  %38 = icmp ne i32 %37, 0
  br i1 %38, label %39, label %47

39:                                               ; preds = %28
  %40 = load i8, ptr %9, align 1
  %41 = sext i8 %40 to i32
  %42 = load i8, ptr %8, align 1
  %43 = sext i8 %42 to i32
  %44 = icmp eq i32 %41, %43
  br i1 %44, label %45, label %46

45:                                               ; preds = %39
  store i8 1, ptr %7, align 1
  br label %46

46:                                               ; preds = %45, %39
  br label %11, !llvm.loop !22

47:                                               ; preds = %28
  %48 = load i8, ptr %8, align 1
  %49 = sext i8 %48 to i32
  switch i32 %49, label %63 [
    i32 97, label %50
    i32 40, label %54
    i32 123, label %58
    i32 121, label %62
    i32 100, label %62
    i32 116, label %62
    i32 120, label %62
    i32 103, label %62
    i32 104, label %62
    i32 105, label %62
    i32 117, label %62
    i32 98, label %62
    i32 110, label %62
    i32 113, label %62
    i32 115, label %62
    i32 118, label %62
    i32 111, label %62
  ]

50:                                               ; preds = %47
  %51 = load ptr, ptr %4, align 8
  %52 = load ptr, ptr %5, align 8
  %53 = load ptr, ptr %6, align 8
  call void @advance_to_end_of_signature(ptr noundef %51, ptr noundef %52, ptr noundef %53)
  br label %64

54:                                               ; preds = %47
  store i8 41, ptr %9, align 1
  %55 = load ptr, ptr %4, align 8
  %56 = load ptr, ptr %5, align 8
  %57 = load ptr, ptr %6, align 8
  call void @advance_to_end_of_signature(ptr noundef %55, ptr noundef %56, ptr noundef %57)
  br label %64

58:                                               ; preds = %47
  store i8 125, ptr %9, align 1
  %59 = load ptr, ptr %4, align 8
  %60 = load ptr, ptr %5, align 8
  %61 = load ptr, ptr %6, align 8
  call void @advance_to_end_of_signature(ptr noundef %59, ptr noundef %60, ptr noundef %61)
  br label %64

62:                                               ; preds = %47, %47, %47, %47, %47, %47, %47, %47, %47, %47, %47, %47, %47, %47
  store i8 1, ptr %7, align 1
  br label %64

63:                                               ; preds = %47
  store i8 1, ptr %7, align 1
  br label %64

64:                                               ; preds = %63, %62, %58, %54, %50
  br label %11, !llvm.loop !22

65:                                               ; preds = %26
  %66 = load ptr, ptr %4, align 8
  call void @decrement_dissection_depth(ptr noundef %66)
  call void @llvm.lifetime.end.p0(i64 1, ptr %9) #5
  call void @llvm.lifetime.end.p0(i64 1, ptr %8) #5
  call void @llvm.lifetime.end.p0(i64 1, ptr %7) #5
  ret void
}