; Function Attrs: null_pointer_is_valid sspstrong uwtable
define internal fastcc void @advance_to_end_of_signature(ptr noundef %0, ptr noundef captures(none) %1, ptr noundef captures(none) %2) unnamed_addr #0 {
  tail call void @increment_dissection_depth(ptr noundef %0)
  %.pr33 = load i8, ptr %2, align 1
  %.not2634 = icmp eq i8 %.pr33, 0
  br i1 %.not2634, label %.critedge, label %.lr.ph.split.us

.lr.ph:                                           ; preds = %thread-pre-split.backedge
  br i1 %.not25.be, label %.lr.ph.split.us, label %.lr.ph.split, !llvm.loop !21

.lr.ph.split.us:                                  ; preds = %3, %.lr.ph
  %.021.ph3547 = phi i1 [ %.021.ph.be, %.lr.ph ], [ false, %3 ]
  %4 = load ptr, ptr %1, align 8
  %5 = load i8, ptr %4, align 1
  %6 = icmp eq i8 %5, 0
  %or.cond.not.us = or i1 %6, %.021.ph3547
  br i1 %or.cond.not.us, label %.critedge, label %.split.us

.split.us:                                        ; preds = %.lr.ph.split.us
  %7 = getelementptr i8, ptr %4, i64 1
  store ptr %7, ptr %1, align 8
  %8 = load i8, ptr %7, align 1
  %9 = load i8, ptr %2, align 1
  %10 = add i8 %9, -1
  store i8 %10, ptr %2, align 1
  switch i8 %8, label %thread-pre-split.backedge [
    i8 97, label %thread-pre-split.backedgethread-pre-split
    i8 40, label %20
    i8 123, label %21
  ]

.lr.ph.split:                                     ; preds = %.lr.ph, %14
  %.02127 = phi i1 [ %19, %14 ], [ %.021.ph.be, %.lr.ph ]
  %11 = load ptr, ptr %1, align 8
  %12 = load i8, ptr %11, align 1
  %13 = icmp eq i8 %12, 0
  %or.cond.not = select i1 %13, i1 true, i1 %.02127
  br i1 %or.cond.not, label %.critedge, label %14

14:                                               ; preds = %.lr.ph.split
  %15 = getelementptr i8, ptr %11, i64 1
  store ptr %15, ptr %1, align 8
  %16 = load i8, ptr %15, align 1
  %17 = load i8, ptr %2, align 1
  %18 = add i8 %17, -1
  store i8 %18, ptr %2, align 1
  %19 = icmp eq i8 %.0.ph.be, %16
  %.not = icmp eq i8 %18, 0
  br i1 %.not, label %.critedge, label %.lr.ph.split, !llvm.loop !21

thread-pre-split.backedgethread-pre-split:        ; preds = %.split.us, %20, %21
  %.not25.be.ph = phi i1 [ false, %20 ], [ false, %21 ], [ true, %.split.us ]
  %.0.ph.be.ph = phi i8 [ 41, %20 ], [ 125, %21 ], [ 0, %.split.us ]
  tail call fastcc void @advance_to_end_of_signature(ptr noundef %0, ptr noundef %1, ptr noundef %2)
  %.pr.pr = load i8, ptr %2, align 1
  br label %thread-pre-split.backedge

thread-pre-split.backedge:                        ; preds = %thread-pre-split.backedgethread-pre-split, %.split.us
  %.pr = phi i8 [ %.pr.pr, %thread-pre-split.backedgethread-pre-split ], [ %10, %.split.us ]
  %.021.ph.be = phi i1 [ false, %thread-pre-split.backedgethread-pre-split ], [ true, %.split.us ]
  %.not25.be = phi i1 [ %.not25.be.ph, %thread-pre-split.backedgethread-pre-split ], [ true, %.split.us ]
  %.0.ph.be = phi i8 [ %.0.ph.be.ph, %thread-pre-split.backedgethread-pre-split ], [ 0, %.split.us ]
  %.not26 = icmp eq i8 %.pr, 0
  br i1 %.not26, label %.critedge, label %.lr.ph, !llvm.loop !21

20:                                               ; preds = %.split.us
  br label %thread-pre-split.backedgethread-pre-split

21:                                               ; preds = %.split.us
  br label %thread-pre-split.backedgethread-pre-split

.critedge:                                        ; preds = %.lr.ph.split.us, %thread-pre-split.backedge, %14, %.lr.ph.split, %3
  tail call void @decrement_dissection_depth(ptr noundef %0)
  ret void
}